target datalayout = "e-m:e-p270:32:32-p271:32:32-p272:64:64-i64:64-i128:128-f80:128-n8:16:32:64-S128"
target triple = "x86_64-pc-linux-gnu"

%class.GraphKit = type <{ ptr, %class.Phase, ptr, ptr, ptr, ptr, i32, [4 x i8], ptr, ptr, i32, [4 x i8] }>
%class.Phase = type { i32, ptr }
%class.C2AccessValuePtr = type { %class.C2AccessValue }
%class.C2AccessValue = type { ptr, ptr }
%class.C2ParseAccess = type { %class.C2Access.base, ptr }
%class.C2Access.base = type <{ ptr, i64, i8, [7 x i8], ptr, ptr, ptr, i8 }>
%class.C2Access = type <{ ptr, i64, i8, [7 x i8], ptr, ptr, ptr, i8, [7 x i8] }>
%class.C2AtomicParseAccess = type <{ %class.C2ParseAccess, ptr, i32, [4 x i8] }>

@_ZTV13C2ParseAccess = external unnamed_addr constant { [6 x ptr] }, align 8
@_ZTV8C2Access = linkonce_odr hidden unnamed_addr constant { [6 x ptr] } { [6 x ptr] [ptr null, ptr null, ptr @_ZN8C2Access10set_memoryEv, ptr @__cxa_pure_virtual, ptr @_ZNK8C2Access15is_parse_accessEv, ptr @_ZNK8C2Access13is_opt_accessEv] }, comdat, align 8
@_ZTV19C2AtomicParseAccess = external unnamed_addr constant { [6 x ptr] }, align 8

; Function Attrs: mustprogress nounwind uwtable
define linkonce_odr hidden void @_ZN8C2AccessC2Em9BasicTypeP4NodeR16C2AccessValuePtr(ptr noundef nonnull align 8 dereferenceable(49) %0, i64 noundef %1, i8 noundef zeroext %2, ptr noundef %3, ptr noundef nonnull align 8 dereferenceable(16) %4) unnamed_addr #1 comdat align 2 {
  %6 = alloca ptr, align 8
  %7 = alloca i64, align 8
  %8 = alloca i8, align 1
  %9 = alloca ptr, align 8
  %10 = alloca ptr, align 8
  store ptr %0, ptr %6, align 8
  store i64 %1, ptr %7, align 8
  store i8 %2, ptr %8, align 1
  store ptr %3, ptr %9, align 8
  store ptr %4, ptr %10, align 8
  %11 = load ptr, ptr %6, align 8
  store ptr getelementptr inbounds inrange(-16, 32) ({ [6 x ptr] }, ptr @_ZTV8C2Access, i32 0, i32 0, i32 2), ptr %11, align 8
  %12 = getelementptr inbounds %class.C2Access, ptr %11, i32 0, i32 1
  %13 = load i64, ptr %7, align 8
  store i64 %13, ptr %12, align 8
  %14 = getelementptr inbounds %class.C2Access, ptr %11, i32 0, i32 2
  %15 = load i8, ptr %8, align 1
  store i8 %15, ptr %14, align 8
  %16 = getelementptr inbounds %class.C2Access, ptr %11, i32 0, i32 4
  %17 = load ptr, ptr %9, align 8
  store ptr %17, ptr %16, align 8
  %18 = getelementptr inbounds %class.C2Access, ptr %11, i32 0, i32 5
  %19 = load ptr, ptr %10, align 8
  store ptr %19, ptr %18, align 8
  %20 = getelementptr inbounds %class.C2Access, ptr %11, i32 0, i32 6
  store ptr null, ptr %20, align 8
  %21 = getelementptr inbounds %class.C2Access, ptr %11, i32 0, i32 7
  store i8 0, ptr %21, align 8
  ret void
}

; Function Attrs: mustprogress nounwind uwtable
define linkonce_odr hidden void @_ZN13C2ParseAccessC2EP8GraphKitm9BasicTypeP4NodeR16C2AccessValuePtr(ptr noundef nonnull align 8 dereferenceable(64) %0, ptr noundef %1, i64 noundef %2, i8 noundef zeroext %3, ptr noundef %4, ptr noundef nonnull align 8 dereferenceable(16) %5) unnamed_addr #1 comdat align 2 {
  %7 = alloca ptr, align 8
  %8 = alloca ptr, align 8
  %9 = alloca i64, align 8
  %10 = alloca i8, align 1
  %11 = alloca ptr, align 8
  %12 = alloca ptr, align 8
  store ptr %0, ptr %7, align 8
  store ptr %1, ptr %8, align 8
  store i64 %2, ptr %9, align 8
  store i8 %3, ptr %10, align 1
  store ptr %4, ptr %11, align 8
  store ptr %5, ptr %12, align 8
  %13 = load ptr, ptr %7, align 8
  %14 = load i64, ptr %9, align 8
  %15 = load i8, ptr %10, align 1
  %16 = load ptr, ptr %11, align 8
  %17 = load ptr, ptr %12, align 8
  call void @_ZN8C2AccessC2Em9BasicTypeP4NodeR16C2AccessValuePtr(ptr noundef nonnull align 8 dereferenceable(49) %13, i64 noundef %14, i8 noundef zeroext %15, ptr noundef %16, ptr noundef nonnull align 8 dereferenceable(16) %17)
  store ptr getelementptr inbounds inrange(-16, 32) ({ [6 x ptr] }, ptr @_ZTV13C2ParseAccess, i32 0, i32 0, i32 2), ptr %13, align 8
  %18 = getelementptr inbounds %class.C2ParseAccess, ptr %13, i32 0, i32 1
  %19 = load ptr, ptr %8, align 8
  store ptr %19, ptr %18, align 8
  call void @_ZN8C2Access16fixup_decoratorsEv(ptr noundef nonnull align 8 dereferenceable(49) %13)
  ret void
}

; Function Attrs: mustprogress nounwind uwtable
define linkonce_odr hidden void @_ZN13C2AccessValueC2EP4NodePK4Type(ptr noundef nonnull align 8 dereferenceable(16) %0, ptr noundef %1, ptr noundef %2) unnamed_addr #1 comdat align 2 {
  %4 = alloca ptr, align 8
  %5 = alloca ptr, align 8
  %6 = alloca ptr, align 8
  store ptr %0, ptr %4, align 8
  store ptr %1, ptr %5, align 8
  store ptr %2, ptr %6, align 8
  %7 = load ptr, ptr %4, align 8
  %8 = getelementptr inbounds %class.C2AccessValue, ptr %7, i32 0, i32 0
  %9 = load ptr, ptr %5, align 8
  store ptr %9, ptr %8, align 8
  %10 = getelementptr inbounds %class.C2AccessValue, ptr %7, i32 0, i32 1
  %11 = load ptr, ptr %6, align 8
  store ptr %11, ptr %10, align 8
  ret void
}

; Function Attrs: mustprogress nounwind uwtable
define linkonce_odr hidden noundef zeroext i1 @_ZNK8C2Access6is_rawEv(ptr noundef nonnull align 8 dereferenceable(49) %0) #1 comdat align 2 {
  %2 = alloca ptr, align 8
  store ptr %0, ptr %2, align 8
  %3 = load ptr, ptr %2, align 8
  %4 = getelementptr inbounds %class.C2Access, ptr %3, i32 0, i32 1
  %5 = load i64, ptr %4, align 8
  %6 = and i64 %5, 2048
  %7 = icmp ne i64 %6, 0
  ret i1 %7
}

; Function Attrs: mustprogress nounwind uwtable
define linkonce_odr hidden void @_ZN19C2AtomicParseAccessC2EP8GraphKitm9BasicTypeP4NodeR16C2AccessValuePtrj(ptr noundef nonnull align 8 dereferenceable(76) %0, ptr noundef %1, i64 noundef %2, i8 noundef zeroext %3, ptr noundef %4, ptr noundef nonnull align 8 dereferenceable(16) %5, i32 noundef %6) unnamed_addr #1 comdat align 2 {
  %8 = alloca ptr, align 8
  %9 = alloca ptr, align 8
  %10 = alloca i64, align 8
  %11 = alloca i8, align 1
  %12 = alloca ptr, align 8
  %13 = alloca ptr, align 8
  %14 = alloca i32, align 4
  store ptr %0, ptr %8, align 8
  store ptr %1, ptr %9, align 8
  store i64 %2, ptr %10, align 8
  store i8 %3, ptr %11, align 1
  store ptr %4, ptr %12, align 8
  store ptr %5, ptr %13, align 8
  store i32 %6, ptr %14, align 4
  %15 = load ptr, ptr %8, align 8
  %16 = load ptr, ptr %9, align 8
  %17 = load i64, ptr %10, align 8
  %18 = load i8, ptr %11, align 1
  %19 = load ptr, ptr %12, align 8
  %20 = load ptr, ptr %13, align 8
  call void @_ZN13C2ParseAccessC2EP8GraphKitm9BasicTypeP4NodeR16C2AccessValuePtr(ptr noundef nonnull align 8 dereferenceable(64) %15, ptr noundef %16, i64 noundef %17, i8 noundef zeroext %18, ptr noundef %19, ptr noundef nonnull align 8 dereferenceable(16) %20)
  store ptr getelementptr inbounds inrange(-16, 32) ({ [6 x ptr] }, ptr @_ZTV19C2AtomicParseAccess, i32 0, i32 0, i32 2), ptr %15, align 8
  %21 = getelementptr inbounds %class.C2AtomicParseAccess, ptr %15, i32 0, i32 1
  store ptr null, ptr %21, align 8
  %22 = getelementptr inbounds %class.C2AtomicParseAccess, ptr %15, i32 0, i32 2
  %23 = load i32, ptr %14, align 4
  store i32 %23, ptr %22, align 8
  ret void
}

; Function Attrs: mustprogress nounwind uwtable
define linkonce_odr hidden void @_ZN16C2AccessValuePtrC2EP4NodePK7TypePtr(ptr noundef nonnull align 8 dereferenceable(16) %0, ptr noundef %1, ptr noundef %2) unnamed_addr #1 comdat align 2 {
  %4 = alloca ptr, align 8
  %5 = alloca ptr, align 8
  %6 = alloca ptr, align 8
  store ptr %0, ptr %4, align 8
  store ptr %1, ptr %5, align 8
  store ptr %2, ptr %6, align 8
  %7 = load ptr, ptr %4, align 8
  %8 = load ptr, ptr %5, align 8
  %9 = load ptr, ptr %6, align 8
  call void @_ZN13C2AccessValueC2EP4NodePK4Type(ptr noundef nonnull align 8 dereferenceable(16) %7, ptr noundef %8, ptr noundef %9)
  ret void
}

; Function Attrs: mustprogress nounwind uwtable
define hidden noundef ptr @_ZN8GraphKit29access_atomic_cmpxchg_bool_atEP4NodeS1_PK7TypePtriS1_S1_PK4Type9BasicTypem(ptr noundef nonnull align 8 dereferenceable(84) %0, ptr noundef %1, ptr noundef %2, ptr noundef %3, i32 noundef %4, ptr noundef %5, ptr noundef %6, ptr noundef %7, i8 noundef zeroext %8, i64 noundef %9) #1 align 2 {
  %11 = alloca ptr, align 8
  %12 = alloca ptr, align 8
  %13 = alloca ptr, align 8
  %14 = alloca ptr, align 8
  %15 = alloca ptr, align 8
  %16 = alloca i32, align 4
  %17 = alloca ptr, align 8
  %18 = alloca ptr, align 8
  %19 = alloca ptr, align 8
  %20 = alloca i8, align 1
  %21 = alloca i64, align 8
  %22 = alloca %class.C2AccessValuePtr, align 8
  %23 = alloca %class.C2AtomicParseAccess, align 8
  store ptr %0, ptr %12, align 8
  store ptr %1, ptr %13, align 8
  store ptr %2, ptr %14, align 8
  store ptr %3, ptr %15, align 8
  store i32 %4, ptr %16, align 4
  store ptr %5, ptr %17, align 8
  store ptr %6, ptr %18, align 8
  store ptr %7, ptr %19, align 8
  store i8 %8, ptr %20, align 1
  store i64 %9, ptr %21, align 8
  %24 = load ptr, ptr %12, align 8
  %25 = load ptr, ptr %14, align 8
  %26 = load ptr, ptr %15, align 8
  call void @_ZN16C2AccessValuePtrC2EP4NodePK7TypePtr(ptr noundef nonnull align 8 dereferenceable(16) %22, ptr noundef %25, ptr noundef %26)
  %27 = load i64, ptr %21, align 8
  %28 = or i64 %27, 274877906944
  %29 = or i64 %28, 137438953472
  %30 = load i8, ptr %20, align 1
  %31 = load ptr, ptr %13, align 8
  %32 = load i32, ptr %16, align 4
  call void @_ZN19C2AtomicParseAccessC2EP8GraphKitm9BasicTypeP4NodeR16C2AccessValuePtrj(ptr noundef nonnull align 8 dereferenceable(76) %23, ptr noundef %24, i64 noundef %29, i8 noundef zeroext %30, ptr noundef %31, ptr noundef nonnull align 8 dereferenceable(16) %22, i32 noundef %32)
  %33 = call noundef zeroext i1 @_ZNK8C2Access6is_rawEv(ptr noundef nonnull align 8 dereferenceable(49) %23)
  br i1 %33, label %34, label %41

34:                                               ; preds = %10
  %35 = getelementptr inbounds %class.GraphKit, ptr %24, i32 0, i32 9
  %36 = load ptr, ptr %35, align 8
  %37 = load ptr, ptr %17, align 8
  %38 = load ptr, ptr %18, align 8
  %39 = load ptr, ptr %19, align 8
  %40 = call noundef ptr @_ZNK12BarrierSetC222atomic_cmpxchg_bool_atER19C2AtomicParseAccessP4NodeS3_PK4Type(ptr noundef nonnull align 8 dereferenceable(8) %36, ptr noundef nonnull align 8 dereferenceable(76) %23, ptr noundef %37, ptr noundef %38, ptr noundef %39)
  store ptr %40, ptr %11, align 8
  br label %51

41:                                               ; preds = %10
  %42 = getelementptr inbounds %class.GraphKit, ptr %24, i32 0, i32 9
  %43 = load ptr, ptr %42, align 8
  %44 = load ptr, ptr %17, align 8
  %45 = load ptr, ptr %18, align 8
  %46 = load ptr, ptr %19, align 8
  %47 = load ptr, ptr %43, align 8
  %48 = getelementptr inbounds ptr, ptr %47, i64 10
  %49 = load ptr, ptr %48, align 8
  %50 = call noundef ptr %49(ptr noundef nonnull align 8 dereferenceable(8) %43, ptr noundef nonnull align 8 dereferenceable(76) %23, ptr noundef %44, ptr noundef %45, ptr noundef %46)
  store ptr %50, ptr %11, align 8
  br label %51

51:                                               ; preds = %41, %34
  %52 = load ptr, ptr %11, align 8
  ret ptr %52
}