; Function Attrs: mustprogress nounwind uwtable
define hidden noundef ptr @_ZN8GraphKit29access_atomic_cmpxchg_bool_atEP4NodeS1_PK7TypePtriS1_S1_PK4Type9BasicTypem(ptr noundef nonnull align 8 dereferenceable(84) %0, ptr noundef %1, ptr noundef %2, ptr noundef %3, i32 noundef %4, ptr noundef %5, ptr noundef %6, ptr noundef %7, i8 noundef zeroext %8, i64 noundef %9) local_unnamed_addr #0 align 2 {
  %11 = alloca %class.C2AccessValuePtr, align 8
  %12 = alloca %class.C2AtomicParseAccess, align 8
  store ptr %2, ptr %11, align 8
  %13 = getelementptr inbounds i8, ptr %11, i64 8
  store ptr %3, ptr %13, align 8
  %14 = or i64 %9, 412316860416
  %15 = getelementptr inbounds i8, ptr %12, i64 8
  store i64 %14, ptr %15, align 8
  %16 = getelementptr inbounds i8, ptr %12, i64 16
  store i8 %8, ptr %16, align 8
  %17 = getelementptr inbounds i8, ptr %12, i64 24
  store ptr %1, ptr %17, align 8
  %18 = getelementptr inbounds i8, ptr %12, i64 32
  store ptr %11, ptr %18, align 8
  %19 = getelementptr inbounds i8, ptr %12, i64 40
  store ptr null, ptr %19, align 8
  %20 = getelementptr inbounds i8, ptr %12, i64 48
  store i8 0, ptr %20, align 8
  store ptr getelementptr inbounds inrange(-16, 32) (i8, ptr @_ZTV13C2ParseAccess, i64 16), ptr %12, align 8
  %21 = getelementptr inbounds i8, ptr %12, i64 56
  store ptr %0, ptr %21, align 8
  call void @_ZN8C2Access16fixup_decoratorsEv(ptr noundef nonnull align 8 dereferenceable(49) %12) #13
  store ptr getelementptr inbounds inrange(-16, 32) (i8, ptr @_ZTV19C2AtomicParseAccess, i64 16), ptr %12, align 8
  %22 = getelementptr inbounds i8, ptr %12, i64 64
  store ptr null, ptr %22, align 8
  %23 = getelementptr inbounds i8, ptr %12, i64 72
  store i32 %4, ptr %23, align 8
  %24 = load i64, ptr %15, align 8
  %25 = and i64 %24, 2048
  %.not = icmp eq i64 %25, 0
  %26 = getelementptr inbounds i8, ptr %0, i64 72
  %27 = load ptr, ptr %26, align 8
  br i1 %.not, label %30, label %28

28:                                               ; preds = %10
  %29 = call noundef ptr @_ZNK12BarrierSetC222atomic_cmpxchg_bool_atER19C2AtomicParseAccessP4NodeS3_PK4Type(ptr noundef nonnull align 8 dereferenceable(8) %27, ptr noundef nonnull align 8 dereferenceable(76) %12, ptr noundef %5, ptr noundef %6, ptr noundef %7) #13
  br label %35

30:                                               ; preds = %10
  %31 = load ptr, ptr %27, align 8
  %32 = getelementptr inbounds i8, ptr %31, i64 80
  %33 = load ptr, ptr %32, align 8
  %34 = call noundef ptr %33(ptr noundef nonnull align 8 dereferenceable(8) %27, ptr noundef nonnull align 8 dereferenceable(76) %12, ptr noundef %5, ptr noundef %6, ptr noundef %7) #13
  br label %35

35:                                               ; preds = %30, %28
  %.0 = phi ptr [ %29, %28 ], [ %34, %30 ]
  ret ptr %.0
}